; ModuleID = '39/39.c'
source_filename = "39/39.c"
target datalayout = "e-m:e-p270:32:32-p271:32:32-p272:64:64-i64:64-f80:128-n8:16:32:64-S128"
target triple = "x86_64-pc-linux-gnu"

%struct.student = type { [200 x i8], i32, i32, i32, i32, i8, i8 }

@.str = private unnamed_addr constant [3 x i8] c"%d\00", align 1
@.str.1 = private unnamed_addr constant [18 x i8] c"%s %d %d %c %c %d\00", align 1
@.str.2 = private unnamed_addr constant [10 x i8] c"%s\0A%d\0A%d\0A\00", align 1

; Function Attrs: noinline nounwind uwtable
define dso_local i32 @main() #0 {
  %1 = alloca i32, align 4
  %2 = alloca i32, align 4
  %3 = alloca i32, align 4
  %4 = alloca i32, align 4
  %5 = alloca i32, align 4
  %6 = alloca i32, align 4
  %7 = alloca [101 x %struct.student], align 16
  store i32 0, i32* %1, align 4
  store i32 0, i32* %4, align 4
  store i32 0, i32* %5, align 4
  %8 = call i32 (i8*, ...) @__isoc99_scanf(i8* getelementptr inbounds ([3 x i8], [3 x i8]* @.str, i64 0, i64 0), i32* %2)
  store i32 0, i32* %3, align 4
  br label %9

9:                                                ; preds = %187, %0
  %10 = load i32, i32* %3, align 4
  %11 = load i32, i32* %2, align 4
  %12 = sub nsw i32 %11, 1
  %13 = icmp sle i32 %10, %12
  br i1 %13, label %14, label %190

14:                                               ; preds = %9
  %15 = load i32, i32* %3, align 4
  %16 = sext i32 %15 to i64
  %17 = getelementptr inbounds [101 x %struct.student], [101 x %struct.student]* %7, i64 0, i64 %16
  %18 = getelementptr inbounds %struct.student, %struct.student* %17, i32 0, i32 4
  store i32 0, i32* %18, align 4
  %19 = load i32, i32* %3, align 4
  %20 = sext i32 %19 to i64
  %21 = getelementptr inbounds [101 x %struct.student], [101 x %struct.student]* %7, i64 0, i64 %20
  %22 = getelementptr inbounds %struct.student, %struct.student* %21, i32 0, i32 0
  %23 = getelementptr inbounds [200 x i8], [200 x i8]* %22, i64 0, i64 0
  %24 = load i32, i32* %3, align 4
  %25 = sext i32 %24 to i64
  %26 = getelementptr inbounds [101 x %struct.student], [101 x %struct.student]* %7, i64 0, i64 %25
  %27 = getelementptr inbounds %struct.student, %struct.student* %26, i32 0, i32 1
  %28 = load i32, i32* %3, align 4
  %29 = sext i32 %28 to i64
  %30 = getelementptr inbounds [101 x %struct.student], [101 x %struct.student]* %7, i64 0, i64 %29
  %31 = getelementptr inbounds %struct.student, %struct.student* %30, i32 0, i32 2
  %32 = load i32, i32* %3, align 4
  %33 = sext i32 %32 to i64
  %34 = getelementptr inbounds [101 x %struct.student], [101 x %struct.student]* %7, i64 0, i64 %33
  %35 = getelementptr inbounds %struct.student, %struct.student* %34, i32 0, i32 5
  %36 = load i32, i32* %3, align 4
  %37 = sext i32 %36 to i64
  %38 = getelementptr inbounds [101 x %struct.student], [101 x %struct.student]* %7, i64 0, i64 %37
  %39 = getelementptr inbounds %struct.student, %struct.student* %38, i32 0, i32 6
  %40 = load i32, i32* %3, align 4
  %41 = sext i32 %40 to i64
  %42 = getelementptr inbounds [101 x %struct.student], [101 x %struct.student]* %7, i64 0, i64 %41
  %43 = getelementptr inbounds %struct.student, %struct.student* %42, i32 0, i32 3
  %44 = call i32 (i8*, ...) @__isoc99_scanf(i8* getelementptr inbounds ([18 x i8], [18 x i8]* @.str.1, i64 0, i64 0), i8* %23, i32* %27, i32* %31, i8* %35, i8* %39, i32* %43)
  %45 = load i32, i32* %3, align 4
  %46 = sext i32 %45 to i64
  %47 = getelementptr inbounds [101 x %struct.student], [101 x %struct.student]* %7, i64 0, i64 %46
  %48 = getelementptr inbounds %struct.student, %struct.student* %47, i32 0, i32 1
  %49 = load i32, i32* %48, align 4
  %50 = icmp sgt i32 %49, 80
  br i1 %50, label %51, label %69

51:                                               ; preds = %14
  %52 = load i32, i32* %3, align 4
  %53 = sext i32 %52 to i64
  %54 = getelementptr inbounds [101 x %struct.student], [101 x %struct.student]* %7, i64 0, i64 %53
  %55 = getelementptr inbounds %struct.student, %struct.student* %54, i32 0, i32 3
  %56 = load i32, i32* %55, align 4
  %57 = icmp ne i32 %56, 0
  br i1 %57, label %58, label %69

58:                                               ; preds = %51
  %59 = load i32, i32* %3, align 4
  %60 = sext i32 %59 to i64
  %61 = getelementptr inbounds [101 x %struct.student], [101 x %struct.student]* %7, i64 0, i64 %60
  %62 = getelementptr inbounds %struct.student, %struct.student* %61, i32 0, i32 4
  %63 = load i32, i32* %62, align 4
  %64 = add nsw i32 %63, 8000
  %65 = load i32, i32* %3, align 4
  %66 = sext i32 %65 to i64
  %67 = getelementptr inbounds [101 x %struct.student], [101 x %struct.student]* %7, i64 0, i64 %66
  %68 = getelementptr inbounds %struct.student, %struct.student* %67, i32 0, i32 4
  store i32 %64, i32* %68, align 4
  br label %69

69:                                               ; preds = %58, %51, %14
  %70 = load i32, i32* %3, align 4
  %71 = sext i32 %70 to i64
  %72 = getelementptr inbounds [101 x %struct.student], [101 x %struct.student]* %7, i64 0, i64 %71
  %73 = getelementptr inbounds %struct.student, %struct.student* %72, i32 0, i32 1
  %74 = load i32, i32* %73, align 4
  %75 = icmp sgt i32 %74, 85
  br i1 %75, label %76, label %94

76:                                               ; preds = %69
  %77 = load i32, i32* %3, align 4
  %78 = sext i32 %77 to i64
  %79 = getelementptr inbounds [101 x %struct.student], [101 x %struct.student]* %7, i64 0, i64 %78
  %80 = getelementptr inbounds %struct.student, %struct.student* %79, i32 0, i32 2
  %81 = load i32, i32* %80, align 4
  %82 = icmp sgt i32 %81, 80
  br i1 %82, label %83, label %94

83:                                               ; preds = %76
  %84 = load i32, i32* %3, align 4
  %85 = sext i32 %84 to i64
  %86 = getelementptr inbounds [101 x %struct.student], [101 x %struct.student]* %7, i64 0, i64 %85
  %87 = getelementptr inbounds %struct.student, %struct.student* %86, i32 0, i32 4
  %88 = load i32, i32* %87, align 4
  %89 = add nsw i32 %88, 4000
  %90 = load i32, i32* %3, align 4
  %91 = sext i32 %90 to i64
  %92 = getelementptr inbounds [101 x %struct.student], [101 x %struct.student]* %7, i64 0, i64 %91
  %93 = getelementptr inbounds %struct.student, %struct.student* %92, i32 0, i32 4
  store i32 %89, i32* %93, align 4
  br label %94

94:                                               ; preds = %83, %76, %69
  %95 = load i32, i32* %3, align 4
  %96 = sext i32 %95 to i64
  %97 = getelementptr inbounds [101 x %struct.student], [101 x %struct.student]* %7, i64 0, i64 %96
  %98 = getelementptr inbounds %struct.student, %struct.student* %97, i32 0, i32 1
  %99 = load i32, i32* %98, align 4
  %100 = icmp sgt i32 %99, 90
  br i1 %100, label %101, label %112

101:                                              ; preds = %94
  %102 = load i32, i32* %3, align 4
  %103 = sext i32 %102 to i64
  %104 = getelementptr inbounds [101 x %struct.student], [101 x %struct.student]* %7, i64 0, i64 %103
  %105 = getelementptr inbounds %struct.student, %struct.student* %104, i32 0, i32 4
  %106 = load i32, i32* %105, align 4
  %107 = add nsw i32 %106, 2000
  %108 = load i32, i32* %3, align 4
  %109 = sext i32 %108 to i64
  %110 = getelementptr inbounds [101 x %struct.student], [101 x %struct.student]* %7, i64 0, i64 %109
  %111 = getelementptr inbounds %struct.student, %struct.student* %110, i32 0, i32 4
  store i32 %107, i32* %111, align 4
  br label %112

112:                                              ; preds = %101, %94
  %113 = load i32, i32* %3, align 4
  %114 = sext i32 %113 to i64
  %115 = getelementptr inbounds [101 x %struct.student], [101 x %struct.student]* %7, i64 0, i64 %114
  %116 = getelementptr inbounds %struct.student, %struct.student* %115, i32 0, i32 1
  %117 = load i32, i32* %116, align 4
  %118 = icmp sgt i32 %117, 85
  br i1 %118, label %119, label %138

119:                                              ; preds = %112
  %120 = load i32, i32* %3, align 4
  %121 = sext i32 %120 to i64
  %122 = getelementptr inbounds [101 x %struct.student], [101 x %struct.student]* %7, i64 0, i64 %121
  %123 = getelementptr inbounds %struct.student, %struct.student* %122, i32 0, i32 6
  %124 = load i8, i8* %123, align 1
  %125 = sext i8 %124 to i32
  %126 = icmp eq i32 %125, 89
  br i1 %126, label %127, label %138

127:                                              ; preds = %119
  %128 = load i32, i32* %3, align 4
  %129 = sext i32 %128 to i64
  %130 = getelementptr inbounds [101 x %struct.student], [101 x %struct.student]* %7, i64 0, i64 %129
  %131 = getelementptr inbounds %struct.student, %struct.student* %130, i32 0, i32 4
  %132 = load i32, i32* %131, align 4
  %133 = add nsw i32 %132, 1000
  %134 = load i32, i32* %3, align 4
  %135 = sext i32 %134 to i64
  %136 = getelementptr inbounds [101 x %struct.student], [101 x %struct.student]* %7, i64 0, i64 %135
  %137 = getelementptr inbounds %struct.student, %struct.student* %136, i32 0, i32 4
  store i32 %133, i32* %137, align 4
  br label %138

138:                                              ; preds = %127, %119, %112
  %139 = load i32, i32* %3, align 4
  %140 = sext i32 %139 to i64
  %141 = getelementptr inbounds [101 x %struct.student], [101 x %struct.student]* %7, i64 0, i64 %140
  %142 = getelementptr inbounds %struct.student, %struct.student* %141, i32 0, i32 2
  %143 = load i32, i32* %142, align 4
  %144 = icmp sgt i32 %143, 80
  br i1 %144, label %145, label %164

145:                                              ; preds = %138
  %146 = load i32, i32* %3, align 4
  %147 = sext i32 %146 to i64
  %148 = getelementptr inbounds [101 x %struct.student], [101 x %struct.student]* %7, i64 0, i64 %147
  %149 = getelementptr inbounds %struct.student, %struct.student* %148, i32 0, i32 5
  %150 = load i8, i8* %149, align 4
  %151 = sext i8 %150 to i32
  %152 = icmp eq i32 %151, 89
  br i1 %152, label %153, label %164

153:                                              ; preds = %145
  %154 = load i32, i32* %3, align 4
  %155 = sext i32 %154 to i64
  %156 = getelementptr inbounds [101 x %struct.student], [101 x %struct.student]* %7, i64 0, i64 %155
  %157 = getelementptr inbounds %struct.student, %struct.student* %156, i32 0, i32 4
  %158 = load i32, i32* %157, align 4
  %159 = add nsw i32 %158, 850
  %160 = load i32, i32* %3, align 4
  %161 = sext i32 %160 to i64
  %162 = getelementptr inbounds [101 x %struct.student], [101 x %struct.student]* %7, i64 0, i64 %161
  %163 = getelementptr inbounds %struct.student, %struct.student* %162, i32 0, i32 4
  store i32 %159, i32* %163, align 4
  br label %164

164:                                              ; preds = %153, %145, %138
  %165 = load i32, i32* %3, align 4
  %166 = sext i32 %165 to i64
  %167 = getelementptr inbounds [101 x %struct.student], [101 x %struct.student]* %7, i64 0, i64 %166
  %168 = getelementptr inbounds %struct.student, %struct.student* %167, i32 0, i32 4
  %169 = load i32, i32* %168, align 4
  %170 = load i32, i32* %4, align 4
  %171 = icmp sgt i32 %169, %170
  br i1 %171, label %172, label %179

172:                                              ; preds = %164
  %173 = load i32, i32* %3, align 4
  %174 = sext i32 %173 to i64
  %175 = getelementptr inbounds [101 x %struct.student], [101 x %struct.student]* %7, i64 0, i64 %174
  %176 = getelementptr inbounds %struct.student, %struct.student* %175, i32 0, i32 4
  %177 = load i32, i32* %176, align 4
  store i32 %177, i32* %4, align 4
  %178 = load i32, i32* %3, align 4
  store i32 %178, i32* %6, align 4
  br label %179

179:                                              ; preds = %172, %164
  %180 = load i32, i32* %5, align 4
  %181 = load i32, i32* %3, align 4
  %182 = sext i32 %181 to i64
  %183 = getelementptr inbounds [101 x %struct.student], [101 x %struct.student]* %7, i64 0, i64 %182
  %184 = getelementptr inbounds %struct.student, %struct.student* %183, i32 0, i32 4
  %185 = load i32, i32* %184, align 4
  %186 = add nsw i32 %180, %185
  store i32 %186, i32* %5, align 4
  br label %187

187:                                              ; preds = %179
  %188 = load i32, i32* %3, align 4
  %189 = add nsw i32 %188, 1
  store i32 %189, i32* %3, align 4
  br label %9

190:                                              ; preds = %9
  %191 = load i32, i32* %6, align 4
  %192 = sext i32 %191 to i64
  %193 = getelementptr inbounds [101 x %struct.student], [101 x %struct.student]* %7, i64 0, i64 %192
  %194 = getelementptr inbounds %struct.student, %struct.student* %193, i32 0, i32 0
  %195 = getelementptr inbounds [200 x i8], [200 x i8]* %194, i64 0, i64 0
  %196 = load i32, i32* %6, align 4
  %197 = sext i32 %196 to i64
  %198 = getelementptr inbounds [101 x %struct.student], [101 x %struct.student]* %7, i64 0, i64 %197
  %199 = getelementptr inbounds %struct.student, %struct.student* %198, i32 0, i32 4
  %200 = load i32, i32* %199, align 4
  %201 = load i32, i32* %5, align 4
  %202 = call i32 (i8*, ...) @printf(i8* getelementptr inbounds ([10 x i8], [10 x i8]* @.str.2, i64 0, i64 0), i8* %195, i32 %200, i32 %201)
  ret i32 0
}

declare dso_local i32 @__isoc99_scanf(i8*, ...) #1

declare dso_local i32 @printf(i8*, ...) #1


!llvm.module.flags = !{!0}
!llvm.ident = !{!1}

!0 = !{i32 1, !"wchar_size", i32 4}
!1 = !{!"clang version 10.0.0-4ubuntu1 "}
